target datalayout = "e-m:e-p270:32:32-p271:32:32-p272:64:64-i64:64-i128:128-f80:128-n8:16:32:64-S128"
target triple = "x86_64-pc-linux-gnu"

%class.WorkerTaskDispatcher = type { ptr, i32, i32, %class.Semaphore, %class.Semaphore }
%class.Semaphore = type { %class.PosixSemaphore }
%class.PosixSemaphore = type { %union.sem_t }
%union.sem_t = type { i64, [24 x i8] }
%class.WorkerThreads = type { ptr, ptr, ptr, i32, i32, i32, %class.WorkerTaskDispatcher }

@InjectGCWorkerCreationFailure = external global i8, align 1
@_ZN12WorkerThreadC1EPKcjP20WorkerTaskDispatcher = hidden unnamed_addr alias void (ptr, ptr, i32, ptr), ptr @_ZN12WorkerThreadC2EPKcjP20WorkerTaskDispatcher

; Function Attrs: mustprogress nounwind uwtable
define hidden noundef ptr @_ZN13WorkerThreads13create_workerEj(ptr noundef nonnull align 8 dereferenceable(120) %0, i32 noundef %1) #1 align 2 {
  %3 = alloca i64, align 8
  %4 = alloca i8, align 1
  %5 = alloca i64, align 8
  %6 = alloca ptr, align 8
  %7 = alloca ptr, align 8
  %8 = alloca i32, align 4
  %9 = alloca ptr, align 8
  store ptr %0, ptr %7, align 8
  store i32 %1, ptr %8, align 4
  %10 = load ptr, ptr %7, align 8
  %11 = call noundef zeroext i1 @_Z17is_init_completedv()
  br i1 %11, label %12, label %16

12:                                               ; preds = %2
  %13 = load i8, ptr @InjectGCWorkerCreationFailure, align 1
  %14 = trunc i8 %13 to i1
  br i1 %14, label %15, label %16

15:                                               ; preds = %12
  store ptr null, ptr %6, align 8
  br label %42

16:                                               ; preds = %12, %2
  store i64 928, ptr %5, align 8
  %17 = load i64, ptr %5, align 8
  store i64 %17, ptr %3, align 8
  store i8 2, ptr %4, align 1
  %18 = load i64, ptr %3, align 8
  %19 = load i8, ptr %4, align 1
  %20 = call noundef ptr @_Z12AllocateHeapm8MEMFLAGSN17AllocFailStrategy13AllocFailEnumE(i64 noundef %18, i8 noundef zeroext %19, i32 noundef 0) #6
  %21 = getelementptr inbounds %class.WorkerThreads, ptr %10, i32 0, i32 1
  %22 = load ptr, ptr %21, align 8
  %23 = load i32, ptr %8, align 4
  %24 = getelementptr inbounds %class.WorkerThreads, ptr %10, i32 0, i32 6
  call void @_ZN12WorkerThreadC1EPKcjP20WorkerTaskDispatcher(ptr noundef nonnull align 8 dereferenceable(928) %20, ptr noundef %22, i32 noundef %23, ptr noundef %24)
  store ptr %20, ptr %9, align 8
  %25 = load ptr, ptr %9, align 8
  %26 = call noundef zeroext i1 @_ZN2os13create_threadEP6ThreadNS_10ThreadTypeEm(ptr noundef %25, i32 noundef 1, i64 noundef 0)
  br i1 %26, label %35, label %27

27:                                               ; preds = %16
  %28 = load ptr, ptr %9, align 8
  %29 = icmp eq ptr %28, null
  br i1 %29, label %34, label %30

30:                                               ; preds = %27
  %31 = load ptr, ptr %28, align 8
  %32 = getelementptr inbounds ptr, ptr %31, i64 2
  %33 = load ptr, ptr %32, align 8
  call void %33(ptr noundef nonnull align 8 dereferenceable(928) %28) #6
  br label %34

34:                                               ; preds = %30, %27
  store ptr null, ptr %6, align 8
  br label %42

35:                                               ; preds = %16
  %36 = load ptr, ptr %9, align 8
  %37 = load ptr, ptr %10, align 8
  %38 = getelementptr inbounds ptr, ptr %37, i64 0
  %39 = load ptr, ptr %38, align 8
  call void %39(ptr noundef nonnull align 8 dereferenceable(120) %10, ptr noundef %36)
  %40 = load ptr, ptr %9, align 8
  call void @_ZN2os12start_threadEP6Thread(ptr noundef %40)
  %41 = load ptr, ptr %9, align 8
  store ptr %41, ptr %6, align 8
  br label %42

42:                                               ; preds = %35, %34, %15
  %43 = load ptr, ptr %6, align 8
  ret ptr %43
}